target datalayout = "e-m:e-p270:32:32-p271:32:32-p272:64:64-i64:64-i128:128-f80:128-n8:16:32:64-S128"
target triple = "x86_64-pc-linux-gnu"

; Function Attrs: mustprogress nounwind uwtable
define signext i8 @uprv_toupper_77(i8 noundef signext %0) #0 {
  %2 = alloca i8, align 1
  store i8 %0, ptr %2, align 1, !tbaa !3
  %3 = load i8, ptr %2, align 1, !tbaa !3
  %4 = sext i8 %3 to i32
  %5 = icmp sle i32 97, %4
  br i1 %5, label %6, label %15

6:                                                ; preds = %1
  %7 = load i8, ptr %2, align 1, !tbaa !3
  %8 = sext i8 %7 to i32
  %9 = icmp sle i32 %8, 122
  br i1 %9, label %10, label %15

10:                                               ; preds = %6
  %11 = load i8, ptr %2, align 1, !tbaa !3
  %12 = sext i8 %11 to i32
  %13 = add nsw i32 %12, -32
  %14 = trunc i32 %13 to i8
  store i8 %14, ptr %2, align 1, !tbaa !3
  br label %15

15:                                               ; preds = %10, %6, %1
  %16 = load i8, ptr %2, align 1, !tbaa !3
  ret i8 %16
}

; Function Attrs: mustprogress nounwind uwtable
define ptr @T_CString_toUpperCase_77(ptr noundef %0) #0 {
  %2 = alloca ptr, align 8
  %3 = alloca ptr, align 8
  store ptr %0, ptr %2, align 8, !tbaa !6
  call void @llvm.lifetime.start.p0(i64 8, ptr %3) #7
  %4 = load ptr, ptr %2, align 8, !tbaa !6
  store ptr %4, ptr %3, align 8, !tbaa !6
  %5 = load ptr, ptr %2, align 8, !tbaa !6
  %6 = icmp ne ptr %5, null
  br i1 %6, label %7, label %19

7:                                                ; preds = %1
  br label %8

8:                                                ; preds = %13, %7
  %9 = load ptr, ptr %2, align 8, !tbaa !6
  %10 = load i8, ptr %9, align 1, !tbaa !3
  %11 = call signext i8 @uprv_toupper_77(i8 noundef signext %10)
  %12 = load ptr, ptr %2, align 8, !tbaa !6
  store i8 %11, ptr %12, align 1, !tbaa !3
  br label %13

13:                                               ; preds = %8
  %14 = load ptr, ptr %2, align 8, !tbaa !6
  %15 = getelementptr inbounds nuw i8, ptr %14, i32 1
  store ptr %15, ptr %2, align 8, !tbaa !6
  %16 = load i8, ptr %14, align 1, !tbaa !3
  %17 = icmp ne i8 %16, 0
  br i1 %17, label %8, label %18, !llvm.loop !11

18:                                               ; preds = %13
  br label %19

19:                                               ; preds = %18, %1
  %20 = load ptr, ptr %3, align 8, !tbaa !6
  call void @llvm.lifetime.end.p0(i64 8, ptr %3) #7
  ret ptr %20
}