; Function Attrs: mustprogress nofree norecurse nosync nounwind memory(argmem: readwrite) uwtable
define noundef ptr @T_CString_toUpperCase_77(ptr noundef returned %0) local_unnamed_addr #1 {
  %.not = icmp eq ptr %0, null
  br i1 %.not, label %.loopexit, label %.preheader

.preheader:                                       ; preds = %1, %.preheader
  %.0 = phi ptr [ %4, %.preheader ], [ %0, %1 ]
  %2 = load i8, ptr %.0, align 1, !tbaa !3
  %3 = add i8 %2, -97
  %or.cond.i = icmp ult i8 %3, 26
  %narrow.i = add nsw i8 %2, -32
  %spec.select.i = select i1 %or.cond.i, i8 %narrow.i, i8 %2
  store i8 %spec.select.i, ptr %.0, align 1, !tbaa !3
  %4 = getelementptr inbounds nuw i8, ptr %.0, i64 1
  %.not7 = icmp eq i8 %spec.select.i, 0
  br i1 %.not7, label %.loopexit, label %.preheader, !llvm.loop !8

.loopexit:                                        ; preds = %.preheader, %1
  ret ptr %0
}